target datalayout = "e-m:e-p270:32:32-p271:32:32-p272:64:64-i64:64-i128:128-f80:128-n8:16:32:64-S128"
target triple = "x86_64-pc-linux-gnu"

%struct._object = type { %union.anon, ptr }
%union.anon = type { i64 }
%struct.lzma_filter = type { i64, ptr }
%struct._lzma_state = type { ptr, ptr, ptr, ptr }
%struct.anon = type { i32, i32 }
%struct.lzma_options_bcj = type { i32 }

@PyExc_TypeError = external global ptr, align 8
@.str.5 = private unnamed_addr constant [52 x i8] c"Filter specifier must be a dict or dict-like object\00", align 1
@.str.6 = private unnamed_addr constant [3 x i8] c"id\00", align 1
@PyExc_ValueError = external global ptr, align 8
@.str.7 = private unnamed_addr constant [41 x i8] c"Filter specifier must have an \22id\22 entry\00", align 1
@.str.8 = private unnamed_addr constant [24 x i8] c"Invalid filter ID: %llu\00", align 1
@.str.25 = private unnamed_addr constant [5 x i8] c"|OO&\00", align 1
@parse_filter_spec_bcj.optnames = internal global [3 x ptr] [ptr @.str.6, ptr @.str.27, ptr null], align 16
@.str.28 = private unnamed_addr constant [40 x i8] c"Invalid filter specifier for BCJ filter\00", align 1

; Function Attrs: alwaysinline nounwind uwtable
define internal i32 @_Py_IsImmortal(ptr noundef %0) #6 {
  %2 = alloca ptr, align 8
  store ptr %0, ptr %2, align 8, !tbaa !3
  %3 = load ptr, ptr %2, align 8, !tbaa !3
  %4 = getelementptr inbounds nuw %struct._object, ptr %3, i32 0, i32 0
  %5 = getelementptr inbounds nuw %struct.anon, ptr %4, i32 0, i32 0
  %6 = load i32, ptr %5, align 8, !tbaa !31
  %7 = icmp slt i32 %6, 0
  %8 = zext i1 %7 to i32
  ret i32 %8
}

; Function Attrs: nounwind uwtable
define internal ptr @parse_filter_spec_bcj(ptr noundef %0, ptr noundef %1) #0 {
  %3 = alloca ptr, align 8
  %4 = alloca ptr, align 8
  %5 = alloca ptr, align 8
  %6 = alloca ptr, align 8
  %7 = alloca i32, align 4
  %8 = alloca ptr, align 8
  %9 = alloca i32, align 4
  store ptr %0, ptr %4, align 8, !tbaa !8
  store ptr %1, ptr %5, align 8, !tbaa !3
  call void @llvm.lifetime.start.p0(i64 8, ptr %6) #9
  call void @llvm.lifetime.start.p0(i64 4, ptr %7) #9
  store i32 0, ptr %7, align 4, !tbaa !12
  call void @llvm.lifetime.start.p0(i64 8, ptr %8) #9
  %10 = load ptr, ptr %4, align 8, !tbaa !8
  %11 = getelementptr inbounds nuw %struct._lzma_state, ptr %10, i32 0, i32 3
  %12 = load ptr, ptr %11, align 8, !tbaa !16
  %13 = load ptr, ptr %5, align 8, !tbaa !3
  %14 = call i32 (ptr, ptr, ptr, ptr, ...) @PyArg_ParseTupleAndKeywords(ptr noundef %12, ptr noundef %13, ptr noundef @.str.25, ptr noundef @parse_filter_spec_bcj.optnames, ptr noundef %6, ptr noundef @uint32_converter, ptr noundef %7)
  %15 = icmp ne i32 %14, 0
  br i1 %15, label %18, label %16

16:                                               ; preds = %2
  %17 = load ptr, ptr @PyExc_ValueError, align 8, !tbaa !3
  call void @PyErr_SetString(ptr noundef %17, ptr noundef @.str.28)
  store ptr null, ptr %3, align 8
  store i32 1, ptr %9, align 4
  br label %29

18:                                               ; preds = %2
  %19 = call ptr @PyMem_Calloc(i64 noundef 1, i64 noundef 4)
  store ptr %19, ptr %8, align 8, !tbaa !8
  %20 = load ptr, ptr %8, align 8, !tbaa !8
  %21 = icmp eq ptr %20, null
  br i1 %21, label %22, label %24

22:                                               ; preds = %18
  %23 = call ptr @PyErr_NoMemory()
  store ptr %23, ptr %3, align 8
  store i32 1, ptr %9, align 4
  br label %29

24:                                               ; preds = %18
  %25 = load i32, ptr %7, align 4, !tbaa !12
  %26 = load ptr, ptr %8, align 8, !tbaa !8
  %27 = getelementptr inbounds nuw %struct.lzma_options_bcj, ptr %26, i32 0, i32 0
  store i32 %25, ptr %27, align 4, !tbaa !35
  %28 = load ptr, ptr %8, align 8, !tbaa !8
  store ptr %28, ptr %3, align 8
  store i32 1, ptr %9, align 4
  br label %29

29:                                               ; preds = %24, %22, %16
  call void @llvm.lifetime.end.p0(i64 8, ptr %8) #9
  call void @llvm.lifetime.end.p0(i64 4, ptr %7) #9
  call void @llvm.lifetime.end.p0(i64 8, ptr %6) #9
  %30 = load ptr, ptr %3, align 8
  ret ptr %30
}

; Function Attrs: alwaysinline nounwind uwtable
define internal void @Py_DECREF(ptr noundef %0) #6 {
  %2 = alloca ptr, align 8
  store ptr %0, ptr %2, align 8, !tbaa !3
  %3 = load ptr, ptr %2, align 8, !tbaa !3
  %4 = call i32 @_Py_IsImmortal(ptr noundef %3)
  %5 = icmp ne i32 %4, 0
  br i1 %5, label %6, label %7

6:                                                ; preds = %1
  br label %16

7:                                                ; preds = %1
  %8 = load ptr, ptr %2, align 8, !tbaa !3
  %9 = getelementptr inbounds nuw %struct._object, ptr %8, i32 0, i32 0
  %10 = getelementptr inbounds nuw %struct.anon, ptr %9, i32 0, i32 0
  %11 = load i32, ptr %10, align 8, !tbaa !31
  %12 = add i32 %11, -1
  store i32 %12, ptr %10, align 8, !tbaa !31
  %13 = icmp eq i32 %12, 0
  br i1 %13, label %14, label %16

14:                                               ; preds = %7
  %15 = load ptr, ptr %2, align 8, !tbaa !3
  call void @_Py_Dealloc(ptr noundef %15)
  br label %16

16:                                               ; preds = %6, %14, %7
  ret void
}

; Function Attrs: nounwind uwtable
define internal i32 @lzma_filter_converter(ptr noundef %0, ptr noundef %1, ptr noundef %2) #0 {
  %4 = alloca i32, align 4
  %5 = alloca ptr, align 8
  %6 = alloca ptr, align 8
  %7 = alloca ptr, align 8
  %8 = alloca ptr, align 8
  %9 = alloca ptr, align 8
  %10 = alloca i32, align 4
  store ptr %0, ptr %5, align 8, !tbaa !8
  store ptr %1, ptr %6, align 8, !tbaa !3
  store ptr %2, ptr %7, align 8, !tbaa !8
  call void @llvm.lifetime.start.p0(i64 8, ptr %8) #9
  %11 = load ptr, ptr %7, align 8, !tbaa !8
  store ptr %11, ptr %8, align 8, !tbaa !8
  call void @llvm.lifetime.start.p0(i64 8, ptr %9) #9
  %12 = load ptr, ptr %6, align 8, !tbaa !3
  %13 = call i32 @PyMapping_Check(ptr noundef %12)
  %14 = icmp ne i32 %13, 0
  br i1 %14, label %17, label %15

15:                                               ; preds = %3
  %16 = load ptr, ptr @PyExc_TypeError, align 8, !tbaa !3
  call void @PyErr_SetString(ptr noundef %16, ptr noundef @.str.5)
  store i32 0, ptr %4, align 4
  store i32 1, ptr %10, align 4
  br label %79

17:                                               ; preds = %3
  %18 = load ptr, ptr %6, align 8, !tbaa !3
  %19 = call i32 @PyMapping_GetOptionalItemString(ptr noundef %18, ptr noundef @.str.6, ptr noundef %9)
  %20 = icmp slt i32 %19, 0
  br i1 %20, label %21, label %22

21:                                               ; preds = %17
  store i32 0, ptr %4, align 4
  store i32 1, ptr %10, align 4
  br label %79

22:                                               ; preds = %17
  %23 = load ptr, ptr %9, align 8, !tbaa !3
  %24 = icmp eq ptr %23, null
  br i1 %24, label %25, label %27

25:                                               ; preds = %22
  %26 = load ptr, ptr @PyExc_ValueError, align 8, !tbaa !3
  call void @PyErr_SetString(ptr noundef %26, ptr noundef @.str.7)
  store i32 0, ptr %4, align 4
  store i32 1, ptr %10, align 4
  br label %79

27:                                               ; preds = %22
  %28 = load ptr, ptr %9, align 8, !tbaa !3
  %29 = call i64 @PyLong_AsUnsignedLongLong(ptr noundef %28)
  %30 = load ptr, ptr %8, align 8, !tbaa !8
  %31 = getelementptr inbounds nuw %struct.lzma_filter, ptr %30, i32 0, i32 0
  store i64 %29, ptr %31, align 8, !tbaa !22
  %32 = load ptr, ptr %9, align 8, !tbaa !3
  call void @Py_DECREF(ptr noundef %32)
  %33 = call ptr @PyErr_Occurred()
  %34 = icmp ne ptr %33, null
  br i1 %34, label %35, label %36

35:                                               ; preds = %27
  store i32 0, ptr %4, align 4
  store i32 1, ptr %10, align 4
  br label %79

36:                                               ; preds = %27
  %37 = load ptr, ptr %8, align 8, !tbaa !8
  %38 = getelementptr inbounds nuw %struct.lzma_filter, ptr %37, i32 0, i32 0
  %39 = load i64, ptr %38, align 8, !tbaa !22
  switch i64 %39, label %73 [
    i64 4611686018427387905, label %40
    i64 33, label %40
    i64 3, label %51
    i64 4, label %62
    i64 5, label %62
    i64 6, label %62
    i64 7, label %62
    i64 8, label %62
    i64 9, label %62
  ]

40:                                               ; preds = %36, %36
  %41 = load ptr, ptr %5, align 8, !tbaa !8
  %42 = load ptr, ptr %6, align 8, !tbaa !3
  %43 = call ptr @parse_filter_spec_lzma(ptr noundef %41, ptr noundef %42)
  %44 = load ptr, ptr %8, align 8, !tbaa !8
  %45 = getelementptr inbounds nuw %struct.lzma_filter, ptr %44, i32 0, i32 1
  store ptr %43, ptr %45, align 8, !tbaa !25
  %46 = load ptr, ptr %8, align 8, !tbaa !8
  %47 = getelementptr inbounds nuw %struct.lzma_filter, ptr %46, i32 0, i32 1
  %48 = load ptr, ptr %47, align 8, !tbaa !25
  %49 = icmp ne ptr %48, null
  %50 = zext i1 %49 to i32
  store i32 %50, ptr %4, align 4
  store i32 1, ptr %10, align 4
  br label %79

51:                                               ; preds = %36
  %52 = load ptr, ptr %5, align 8, !tbaa !8
  %53 = load ptr, ptr %6, align 8, !tbaa !3
  %54 = call ptr @parse_filter_spec_delta(ptr noundef %52, ptr noundef %53)
  %55 = load ptr, ptr %8, align 8, !tbaa !8
  %56 = getelementptr inbounds nuw %struct.lzma_filter, ptr %55, i32 0, i32 1
  store ptr %54, ptr %56, align 8, !tbaa !25
  %57 = load ptr, ptr %8, align 8, !tbaa !8
  %58 = getelementptr inbounds nuw %struct.lzma_filter, ptr %57, i32 0, i32 1
  %59 = load ptr, ptr %58, align 8, !tbaa !25
  %60 = icmp ne ptr %59, null
  %61 = zext i1 %60 to i32
  store i32 %61, ptr %4, align 4
  store i32 1, ptr %10, align 4
  br label %79

62:                                               ; preds = %36, %36, %36, %36, %36, %36
  %63 = load ptr, ptr %5, align 8, !tbaa !8
  %64 = load ptr, ptr %6, align 8, !tbaa !3
  %65 = call ptr @parse_filter_spec_bcj(ptr noundef %63, ptr noundef %64)
  %66 = load ptr, ptr %8, align 8, !tbaa !8
  %67 = getelementptr inbounds nuw %struct.lzma_filter, ptr %66, i32 0, i32 1
  store ptr %65, ptr %67, align 8, !tbaa !25
  %68 = load ptr, ptr %8, align 8, !tbaa !8
  %69 = getelementptr inbounds nuw %struct.lzma_filter, ptr %68, i32 0, i32 1
  %70 = load ptr, ptr %69, align 8, !tbaa !25
  %71 = icmp ne ptr %70, null
  %72 = zext i1 %71 to i32
  store i32 %72, ptr %4, align 4
  store i32 1, ptr %10, align 4
  br label %79

73:                                               ; preds = %36
  %74 = load ptr, ptr @PyExc_ValueError, align 8, !tbaa !3
  %75 = load ptr, ptr %8, align 8, !tbaa !8
  %76 = getelementptr inbounds nuw %struct.lzma_filter, ptr %75, i32 0, i32 0
  %77 = load i64, ptr %76, align 8, !tbaa !22
  %78 = call ptr (ptr, ptr, ...) @PyErr_Format(ptr noundef %74, ptr noundef @.str.8, i64 noundef %77)
  store i32 0, ptr %4, align 4
  store i32 1, ptr %10, align 4
  br label %79

79:                                               ; preds = %73, %62, %51, %40, %35, %25, %21, %15
  call void @llvm.lifetime.end.p0(i64 8, ptr %9) #9
  call void @llvm.lifetime.end.p0(i64 8, ptr %8) #9
  %80 = load i32, ptr %4, align 4
  ret i32 %80
}