; Function Attrs: nounwind uwtable
define internal fastcc range(i32 0, 2) i32 @lzma_filter_converter(ptr noundef readonly captures(none) %0, ptr noundef %1, ptr noundef captures(none) %2) unnamed_addr #0 {
  %4 = alloca ptr, align 8
  %5 = alloca i32, align 4
  %6 = alloca ptr, align 8
  call void @llvm.lifetime.start.p0(i64 8, ptr nonnull %6) #10
  %7 = tail call i32 @PyMapping_Check(ptr noundef %1) #10
  %.not = icmp eq i32 %7, 0
  br i1 %.not, label %8, label %10

8:                                                ; preds = %3
  %9 = load ptr, ptr @PyExc_TypeError, align 8, !tbaa !15
  tail call void @PyErr_SetString(ptr noundef %9, ptr noundef nonnull @.str.5) #10
  br label %55

10:                                               ; preds = %3
  %11 = call i32 @PyMapping_GetOptionalItemString(ptr noundef %1, ptr noundef nonnull @.str.6, ptr noundef nonnull %6) #10
  %12 = icmp slt i32 %11, 0
  br i1 %12, label %55, label %13

13:                                               ; preds = %10
  %14 = load ptr, ptr %6, align 8, !tbaa !15
  %15 = icmp eq ptr %14, null
  br i1 %15, label %16, label %18

16:                                               ; preds = %13
  %17 = load ptr, ptr @PyExc_ValueError, align 8, !tbaa !15
  call void @PyErr_SetString(ptr noundef %17, ptr noundef nonnull @.str.7) #10
  br label %55

18:                                               ; preds = %13
  %19 = call i64 @PyLong_AsUnsignedLongLong(ptr noundef nonnull %14) #10
  store i64 %19, ptr %2, align 8, !tbaa !16
  %20 = load ptr, ptr %6, align 8, !tbaa !15
  %21 = load i32, ptr %20, align 8, !tbaa !14
  %.not.i = icmp sgt i32 %21, -1
  br i1 %.not.i, label %22, label %Py_DECREF.exit

22:                                               ; preds = %18
  %23 = add nsw i32 %21, -1
  store i32 %23, ptr %20, align 8, !tbaa !14
  %24 = icmp eq i32 %23, 0
  br i1 %24, label %25, label %Py_DECREF.exit

25:                                               ; preds = %22
  call void @_Py_Dealloc(ptr noundef nonnull %20) #10
  br label %Py_DECREF.exit

Py_DECREF.exit:                                   ; preds = %18, %22, %25
  %26 = call ptr @PyErr_Occurred() #10
  %.not19 = icmp eq ptr %26, null
  br i1 %.not19, label %27, label %55

27:                                               ; preds = %Py_DECREF.exit
  %28 = load i64, ptr %2, align 8, !tbaa !16
  switch i64 %28, label %52 [
    i64 4611686018427387905, label %29
    i64 33, label %29
    i64 3, label %33
    i64 4, label %38
    i64 5, label %38
    i64 6, label %38
    i64 7, label %38
    i64 8, label %38
    i64 9, label %38
  ]

29:                                               ; preds = %27, %27
  %30 = call fastcc ptr @parse_filter_spec_lzma(ptr noundef %0, ptr noundef %1)
  %31 = getelementptr inbounds nuw i8, ptr %2, i64 8
  store ptr %30, ptr %31, align 8, !tbaa !21
  %32 = icmp ne ptr %30, null
  br label %55

33:                                               ; preds = %27
  %34 = getelementptr i8, ptr %0, i64 24
  %.val = load ptr, ptr %34, align 8, !tbaa !12
  %35 = call fastcc ptr @parse_filter_spec_delta(ptr %.val, ptr noundef %1)
  %36 = getelementptr inbounds nuw i8, ptr %2, i64 8
  store ptr %35, ptr %36, align 8, !tbaa !21
  %37 = icmp ne ptr %35, null
  br label %55

38:                                               ; preds = %27, %27, %27, %27, %27, %27
  %39 = getelementptr i8, ptr %0, i64 24
  %.val20 = load ptr, ptr %39, align 8, !tbaa !12
  call void @llvm.lifetime.start.p0(i64 8, ptr nonnull %4) #10
  call void @llvm.lifetime.start.p0(i64 4, ptr nonnull %5) #10
  store i32 0, ptr %5, align 4, !tbaa !19
  %40 = call i32 (ptr, ptr, ptr, ptr, ...) @PyArg_ParseTupleAndKeywords(ptr noundef %.val20, ptr noundef %1, ptr noundef nonnull @.str.25, ptr noundef nonnull @parse_filter_spec_bcj.optnames, ptr noundef nonnull %4, ptr noundef nonnull @uint32_converter, ptr noundef nonnull %5) #10
  %.not.i21 = icmp eq i32 %40, 0
  br i1 %.not.i21, label %41, label %43

41:                                               ; preds = %38
  %42 = load ptr, ptr @PyExc_ValueError, align 8, !tbaa !15
  call void @PyErr_SetString(ptr noundef %42, ptr noundef nonnull @.str.28) #10
  br label %parse_filter_spec_bcj.exit

43:                                               ; preds = %38
  %44 = call ptr @PyMem_Calloc(i64 noundef 1, i64 noundef 4) #10
  %45 = icmp eq ptr %44, null
  br i1 %45, label %46, label %48

46:                                               ; preds = %43
  %47 = call ptr @PyErr_NoMemory() #10
  br label %parse_filter_spec_bcj.exit

48:                                               ; preds = %43
  %49 = load i32, ptr %5, align 4, !tbaa !19
  store i32 %49, ptr %44, align 4, !tbaa !34
  br label %parse_filter_spec_bcj.exit

parse_filter_spec_bcj.exit:                       ; preds = %41, %46, %48
  %.0.i = phi ptr [ %47, %46 ], [ %44, %48 ], [ null, %41 ]
  call void @llvm.lifetime.end.p0(i64 4, ptr nonnull %5) #10
  call void @llvm.lifetime.end.p0(i64 8, ptr nonnull %4) #10
  %50 = getelementptr inbounds nuw i8, ptr %2, i64 8
  store ptr %.0.i, ptr %50, align 8, !tbaa !21
  %51 = icmp ne ptr %.0.i, null
  br label %55

52:                                               ; preds = %27
  %53 = load ptr, ptr @PyExc_ValueError, align 8, !tbaa !15
  %54 = call ptr (ptr, ptr, ...) @PyErr_Format(ptr noundef %53, ptr noundef nonnull @.str.8, i64 noundef %28) #10
  br label %55

55:                                               ; preds = %Py_DECREF.exit, %10, %52, %parse_filter_spec_bcj.exit, %33, %29, %16, %8
  %.0.shrunk = phi i1 [ false, %16 ], [ false, %52 ], [ %51, %parse_filter_spec_bcj.exit ], [ %37, %33 ], [ %32, %29 ], [ false, %8 ], [ false, %10 ], [ false, %Py_DECREF.exit ]
  %.0 = zext i1 %.0.shrunk to i32
  call void @llvm.lifetime.end.p0(i64 8, ptr nonnull %6) #10
  ret i32 %.0
}